target datalayout = "e-m:e-p270:32:32-p271:32:32-p272:64:64-i64:64-i128:128-f80:128-n8:16:32:64-S128"
target triple = "x86_64-pc-linux-gnu"

@s_Truths6Neg = internal global [6 x i64] [i64 6148914691236517205, i64 3689348814741910323, i64 1085102592571150095, i64 71777214294589695, i64 281470681808895, i64 4294967295], align 16
@s_Truths6 = internal global [6 x i64] [i64 -6148914691236517206, i64 -3689348814741910324, i64 -1085102592571150096, i64 -71777214294589696, i64 -281470681808896, i64 -4294967296], align 16

; Function Attrs: inlinehint nounwind uwtable
define internal i64 @Abc_Tt6Cofactor1(i64 noundef %0, i32 noundef %1) #2 {
  %3 = alloca i64, align 8
  %4 = alloca i32, align 4
  store i64 %0, ptr %3, align 8, !tbaa !10
  store i32 %1, ptr %4, align 4, !tbaa !8
  %5 = load i64, ptr %3, align 8, !tbaa !10
  %6 = load i32, ptr %4, align 4, !tbaa !8
  %7 = sext i32 %6 to i64
  %8 = getelementptr inbounds [6 x i64], ptr @s_Truths6, i64 0, i64 %7
  %9 = load i64, ptr %8, align 8, !tbaa !10
  %10 = and i64 %5, %9
  %11 = load i64, ptr %3, align 8, !tbaa !10
  %12 = load i32, ptr %4, align 4, !tbaa !8
  %13 = sext i32 %12 to i64
  %14 = getelementptr inbounds [6 x i64], ptr @s_Truths6, i64 0, i64 %13
  %15 = load i64, ptr %14, align 8, !tbaa !10
  %16 = and i64 %11, %15
  %17 = load i32, ptr %4, align 4, !tbaa !8
  %18 = shl i32 1, %17
  %19 = zext i32 %18 to i64
  %20 = lshr i64 %16, %19
  %21 = or i64 %10, %20
  ret i64 %21
}

; Function Attrs: inlinehint nounwind uwtable
define internal i64 @Abc_Tt6Cofactor0(i64 noundef %0, i32 noundef %1) #2 {
  %3 = alloca i64, align 8
  %4 = alloca i32, align 4
  store i64 %0, ptr %3, align 8, !tbaa !10
  store i32 %1, ptr %4, align 4, !tbaa !8
  %5 = load i64, ptr %3, align 8, !tbaa !10
  %6 = load i32, ptr %4, align 4, !tbaa !8
  %7 = sext i32 %6 to i64
  %8 = getelementptr inbounds [6 x i64], ptr @s_Truths6Neg, i64 0, i64 %7
  %9 = load i64, ptr %8, align 8, !tbaa !10
  %10 = and i64 %5, %9
  %11 = load i64, ptr %3, align 8, !tbaa !10
  %12 = load i32, ptr %4, align 4, !tbaa !8
  %13 = sext i32 %12 to i64
  %14 = getelementptr inbounds [6 x i64], ptr @s_Truths6Neg, i64 0, i64 %13
  %15 = load i64, ptr %14, align 8, !tbaa !10
  %16 = and i64 %11, %15
  %17 = load i32, ptr %4, align 4, !tbaa !8
  %18 = shl i32 1, %17
  %19 = zext i32 %18 to i64
  %20 = shl i64 %16, %19
  %21 = or i64 %10, %20
  ret i64 %21
}

; Function Attrs: nounwind uwtable
define i32 @Abc_TtCountOnesInCofsFast6_rec(i64 noundef %0, i32 noundef %1, i32 noundef %2, ptr noundef %3) #0 {
  %5 = alloca i32, align 4
  %6 = alloca i64, align 8
  %7 = alloca i32, align 4
  %8 = alloca i32, align 4
  %9 = alloca ptr, align 8
  %10 = alloca i32, align 4
  %11 = alloca i32, align 4
  %12 = alloca i32, align 4
  %13 = alloca i32, align 4
  store i64 %0, ptr %6, align 8, !tbaa !10
  store i32 %1, ptr %7, align 4, !tbaa !8
  store i32 %2, ptr %8, align 4, !tbaa !8
  store ptr %3, ptr %9, align 8, !tbaa !14
  call void @llvm.lifetime.start.p0(i64 4, ptr %10) #12
  call void @llvm.lifetime.start.p0(i64 4, ptr %11) #12
  %14 = load i64, ptr %6, align 8, !tbaa !10
  %15 = icmp eq i64 %14, 0
  br i1 %15, label %16, label %17

16:                                               ; preds = %4
  store i32 0, ptr %5, align 4
  store i32 1, ptr %12, align 4
  br label %102

17:                                               ; preds = %4
  %18 = load i64, ptr %6, align 8, !tbaa !10
  %19 = xor i64 %18, -1
  %20 = icmp eq i64 %19, 0
  br i1 %20, label %21, label %41

21:                                               ; preds = %17
  call void @llvm.lifetime.start.p0(i64 4, ptr %13) #12
  store i32 0, ptr %13, align 4, !tbaa !8
  br label %22

22:                                               ; preds = %35, %21
  %23 = load i32, ptr %13, align 4, !tbaa !8
  %24 = load i32, ptr %7, align 4, !tbaa !8
  %25 = icmp sle i32 %23, %24
  br i1 %25, label %26, label %38

26:                                               ; preds = %22
  %27 = load i32, ptr %8, align 4, !tbaa !8
  %28 = mul nsw i32 %27, 4
  %29 = load ptr, ptr %9, align 8, !tbaa !14
  %30 = load i32, ptr %13, align 4, !tbaa !8
  %31 = sext i32 %30 to i64
  %32 = getelementptr inbounds i32, ptr %29, i64 %31
  %33 = load i32, ptr %32, align 4, !tbaa !8
  %34 = add nsw i32 %33, %28
  store i32 %34, ptr %32, align 4, !tbaa !8
  br label %35

35:                                               ; preds = %26
  %36 = load i32, ptr %13, align 4, !tbaa !8
  %37 = add nsw i32 %36, 1
  store i32 %37, ptr %13, align 4, !tbaa !8
  br label %22, !llvm.loop !24

38:                                               ; preds = %22
  %39 = load i32, ptr %8, align 4, !tbaa !8
  %40 = mul nsw i32 %39, 8
  store i32 %40, ptr %5, align 4
  store i32 1, ptr %12, align 4
  call void @llvm.lifetime.end.p0(i64 4, ptr %13) #12
  br label %102

41:                                               ; preds = %17
  %42 = load i32, ptr %8, align 4, !tbaa !8
  %43 = icmp eq i32 %42, 1
  br i1 %43, label %44, label %73

44:                                               ; preds = %41
  %45 = load i64, ptr %6, align 8, !tbaa !10
  %46 = and i64 %45, 85
  %47 = getelementptr inbounds nuw [256 x i32], ptr @Abc_TtCountOnesInCofsFast6_rec.bit_count, i64 0, i64 %46
  %48 = load i32, ptr %47, align 4, !tbaa !8
  %49 = load ptr, ptr %9, align 8, !tbaa !14
  %50 = getelementptr inbounds i32, ptr %49, i64 0
  %51 = load i32, ptr %50, align 4, !tbaa !8
  %52 = add nsw i32 %51, %48
  store i32 %52, ptr %50, align 4, !tbaa !8
  %53 = load i64, ptr %6, align 8, !tbaa !10
  %54 = and i64 %53, 51
  %55 = getelementptr inbounds nuw [256 x i32], ptr @Abc_TtCountOnesInCofsFast6_rec.bit_count, i64 0, i64 %54
  %56 = load i32, ptr %55, align 4, !tbaa !8
  %57 = load ptr, ptr %9, align 8, !tbaa !14
  %58 = getelementptr inbounds i32, ptr %57, i64 1
  %59 = load i32, ptr %58, align 4, !tbaa !8
  %60 = add nsw i32 %59, %56
  store i32 %60, ptr %58, align 4, !tbaa !8
  %61 = load i64, ptr %6, align 8, !tbaa !10
  %62 = and i64 %61, 15
  %63 = getelementptr inbounds nuw [256 x i32], ptr @Abc_TtCountOnesInCofsFast6_rec.bit_count, i64 0, i64 %62
  %64 = load i32, ptr %63, align 4, !tbaa !8
  %65 = load ptr, ptr %9, align 8, !tbaa !14
  %66 = getelementptr inbounds i32, ptr %65, i64 2
  %67 = load i32, ptr %66, align 4, !tbaa !8
  %68 = add nsw i32 %67, %64
  store i32 %68, ptr %66, align 4, !tbaa !8
  %69 = load i64, ptr %6, align 8, !tbaa !10
  %70 = and i64 %69, 255
  %71 = getelementptr inbounds nuw [256 x i32], ptr @Abc_TtCountOnesInCofsFast6_rec.bit_count, i64 0, i64 %70
  %72 = load i32, ptr %71, align 4, !tbaa !8
  store i32 %72, ptr %5, align 4
  store i32 1, ptr %12, align 4
  br label %102

73:                                               ; preds = %41
  %74 = load i64, ptr %6, align 8, !tbaa !10
  %75 = load i32, ptr %7, align 4, !tbaa !8
  %76 = call i64 @Abc_Tt6Cofactor0(i64 noundef %74, i32 noundef %75)
  %77 = load i32, ptr %7, align 4, !tbaa !8
  %78 = sub nsw i32 %77, 1
  %79 = load i32, ptr %8, align 4, !tbaa !8
  %80 = sdiv i32 %79, 2
  %81 = load ptr, ptr %9, align 8, !tbaa !14
  %82 = call i32 @Abc_TtCountOnesInCofsFast6_rec(i64 noundef %76, i32 noundef %78, i32 noundef %80, ptr noundef %81)
  store i32 %82, ptr %10, align 4, !tbaa !8
  %83 = load i64, ptr %6, align 8, !tbaa !10
  %84 = load i32, ptr %7, align 4, !tbaa !8
  %85 = call i64 @Abc_Tt6Cofactor1(i64 noundef %83, i32 noundef %84)
  %86 = load i32, ptr %7, align 4, !tbaa !8
  %87 = sub nsw i32 %86, 1
  %88 = load i32, ptr %8, align 4, !tbaa !8
  %89 = sdiv i32 %88, 2
  %90 = load ptr, ptr %9, align 8, !tbaa !14
  %91 = call i32 @Abc_TtCountOnesInCofsFast6_rec(i64 noundef %85, i32 noundef %87, i32 noundef %89, ptr noundef %90)
  store i32 %91, ptr %11, align 4, !tbaa !8
  %92 = load i32, ptr %10, align 4, !tbaa !8
  %93 = load ptr, ptr %9, align 8, !tbaa !14
  %94 = load i32, ptr %7, align 4, !tbaa !8
  %95 = sext i32 %94 to i64
  %96 = getelementptr inbounds i32, ptr %93, i64 %95
  %97 = load i32, ptr %96, align 4, !tbaa !8
  %98 = add nsw i32 %97, %92
  store i32 %98, ptr %96, align 4, !tbaa !8
  %99 = load i32, ptr %10, align 4, !tbaa !8
  %100 = load i32, ptr %11, align 4, !tbaa !8
  %101 = add nsw i32 %99, %100
  store i32 %101, ptr %5, align 4
  store i32 1, ptr %12, align 4
  br label %102

102:                                              ; preds = %73, %44, %38, %16
  call void @llvm.lifetime.end.p0(i64 4, ptr %11) #12
  call void @llvm.lifetime.end.p0(i64 4, ptr %10) #12
  %103 = load i32, ptr %5, align 4
  ret i32 %103
}