; Function Attrs: nofree nosync nounwind memory(argmem: readwrite) uwtable
define i32 @Abc_TtCountOnesInCofsFast6_rec(i64 noundef %0, i32 noundef %1, i32 noundef %2, ptr noundef %3) local_unnamed_addr #3 {
  switch i64 %0, label %12 [
    i64 0, label %common.ret38
    i64 -1, label %.preheader
  ]

.preheader:                                       ; preds = %4
  %.not35 = icmp slt i32 %1, 0
  br i1 %.not35, label %._crit_edge, label %.lr.ph

.lr.ph:                                           ; preds = %.preheader
  %5 = shl nsw i32 %2, 2
  %6 = add nuw i32 %1, 1
  %wide.trip.count = zext i32 %6 to i64
  br label %7

7:                                                ; preds = %.lr.ph, %7
  %indvars.iv = phi i64 [ 0, %.lr.ph ], [ %indvars.iv.next, %7 ]
  %8 = getelementptr inbounds nuw i32, ptr %3, i64 %indvars.iv
  %9 = load i32, ptr %8, align 4, !tbaa !10
  %10 = add nsw i32 %9, %5
  store i32 %10, ptr %8, align 4, !tbaa !10
  %indvars.iv.next = add nuw nsw i64 %indvars.iv, 1
  %exitcond.not = icmp eq i64 %indvars.iv.next, %wide.trip.count
  br i1 %exitcond.not, label %._crit_edge, label %7, !llvm.loop !19

._crit_edge:                                      ; preds = %7, %.preheader
  %11 = shl nsw i32 %2, 3
  br label %common.ret38

12:                                               ; preds = %4
  %13 = icmp eq i32 %2, 1
  br i1 %13, label %14, label %35

14:                                               ; preds = %12
  %15 = and i64 %0, 85
  %16 = getelementptr inbounds nuw [256 x i32], ptr @Abc_TtCountOnesInCofsFast6_rec.bit_count, i64 0, i64 %15
  %17 = load i32, ptr %16, align 4, !tbaa !10
  %18 = load i32, ptr %3, align 4, !tbaa !10
  %19 = add nsw i32 %18, %17
  store i32 %19, ptr %3, align 4, !tbaa !10
  %20 = and i64 %0, 51
  %21 = getelementptr inbounds nuw [256 x i32], ptr @Abc_TtCountOnesInCofsFast6_rec.bit_count, i64 0, i64 %20
  %22 = load i32, ptr %21, align 4, !tbaa !10
  %23 = getelementptr inbounds nuw i8, ptr %3, i64 4
  %24 = load i32, ptr %23, align 4, !tbaa !10
  %25 = add nsw i32 %24, %22
  store i32 %25, ptr %23, align 4, !tbaa !10
  %26 = and i64 %0, 15
  %27 = getelementptr inbounds nuw [256 x i32], ptr @Abc_TtCountOnesInCofsFast6_rec.bit_count, i64 0, i64 %26
  %28 = load i32, ptr %27, align 4, !tbaa !10
  %29 = getelementptr inbounds nuw i8, ptr %3, i64 8
  %30 = load i32, ptr %29, align 4, !tbaa !10
  %31 = add nsw i32 %30, %28
  store i32 %31, ptr %29, align 4, !tbaa !10
  %32 = and i64 %0, 255
  %33 = getelementptr inbounds nuw [256 x i32], ptr @Abc_TtCountOnesInCofsFast6_rec.bit_count, i64 0, i64 %32
  %34 = load i32, ptr %33, align 4, !tbaa !10
  br label %common.ret38

common.ret38:                                     ; preds = %4, %14, %._crit_edge, %35
  %common.ret38.op = phi i32 [ %56, %35 ], [ %11, %._crit_edge ], [ %34, %14 ], [ 0, %4 ]
  ret i32 %common.ret38.op

35:                                               ; preds = %12
  %36 = sext i32 %1 to i64
  %37 = getelementptr inbounds [6 x i64], ptr @s_Truths6Neg, i64 0, i64 %36
  %38 = load i64, ptr %37, align 8, !tbaa !3
  %39 = and i64 %38, %0
  %40 = shl nuw i32 1, %1
  %41 = zext nneg i32 %40 to i64
  %42 = shl i64 %39, %41
  %43 = or i64 %42, %39
  %44 = add nsw i32 %1, -1
  %45 = sdiv i32 %2, 2
  %46 = tail call i32 @Abc_TtCountOnesInCofsFast6_rec(i64 noundef %43, i32 noundef %44, i32 noundef %45, ptr noundef %3)
  %47 = getelementptr inbounds [6 x i64], ptr @s_Truths6, i64 0, i64 %36
  %48 = load i64, ptr %47, align 8, !tbaa !3
  %49 = and i64 %48, %0
  %50 = lshr i64 %49, %41
  %51 = or i64 %50, %49
  %52 = tail call i32 @Abc_TtCountOnesInCofsFast6_rec(i64 noundef %51, i32 noundef %44, i32 noundef %45, ptr noundef %3)
  %53 = getelementptr inbounds i32, ptr %3, i64 %36
  %54 = load i32, ptr %53, align 4, !tbaa !10
  %55 = add nsw i32 %54, %46
  store i32 %55, ptr %53, align 4, !tbaa !10
  %56 = add nsw i32 %52, %46
  br label %common.ret38
}